target datalayout = "e-m:e-p270:32:32-p271:32:32-p272:64:64-i64:64-i128:128-f80:128-n8:16:32:64-S128"
target triple = "x86_64-pc-linux-gnu"

%struct.rb_data_type_struct = type { ptr, %struct.anon, ptr, ptr, i64 }
%struct.anon = type { ptr, ptr, ptr, ptr, [1 x ptr] }
%struct.anon.0 = type { i8, i8 }
%struct.rb_random_mt_t = type { %struct.rb_random_struct, %struct.MT }
%struct.rb_random_struct = type { i64 }
%struct.MT = type { [624 x i32], ptr, i32 }
%struct.RBasic = type { i64, i64 }
%struct.rbimpl_size_mul_overflow_tag = type { i8, i64 }
%struct.RTypedData = type { %struct.RBasic, ptr, i64, ptr }

@default_rand_key = internal global ptr null, align 8
@random_mt_if = internal constant { i64, %struct.anon.0, i16, [4 x i8], ptr, ptr, ptr, ptr, ptr } { i64 128, %struct.anon.0 { i8 1, i8 0 }, i16 0, [4 x i8] zeroinitializer, ptr @rand_mt_init, ptr @rand_mt_init_int32, ptr @rand_mt_get_int32, ptr @rand_mt_get_bytes, ptr null }, align 8

; Function Attrs: inlinehint nounwind sspstrong willreturn memory(read) uwtable
define internal ptr @RTYPEDDATA_TYPE(i64 noundef %0) #6 {
  %2 = alloca i64, align 8
  store i64 %0, ptr %2, align 8, !tbaa !26
  %3 = load i64, ptr %2, align 8, !tbaa !26
  %4 = inttoptr i64 %3 to ptr
  %5 = getelementptr inbounds nuw %struct.RTypedData, ptr %4, i32 0, i32 1
  %6 = load ptr, ptr %5, align 8, !tbaa !86
  ret ptr %6
}

; Function Attrs: inlinehint nounwind sspstrong willreturn memory(none) uwtable
define internal { i8, i64 } @rbimpl_size_mul_overflow(i64 noundef %0, i64 noundef %1) #8 {
  %3 = alloca %struct.rbimpl_size_mul_overflow_tag, align 8
  %4 = alloca i64, align 8
  %5 = alloca i64, align 8
  store i64 %0, ptr %4, align 8, !tbaa !26
  store i64 %1, ptr %5, align 8, !tbaa !26
  call void @llvm.memset.p0.i64(ptr align 8 %3, i8 0, i64 16, i1 false)
  %6 = load i64, ptr %4, align 8, !tbaa !26
  %7 = load i64, ptr %5, align 8, !tbaa !26
  %8 = getelementptr inbounds nuw %struct.rbimpl_size_mul_overflow_tag, ptr %3, i32 0, i32 1
  %9 = call { i64, i1 } @llvm.umul.with.overflow.i64(i64 %6, i64 %7)
  %10 = extractvalue { i64, i1 } %9, 1
  %11 = extractvalue { i64, i1 } %9, 0
  store i64 %11, ptr %8, align 8
  %12 = getelementptr inbounds nuw %struct.rbimpl_size_mul_overflow_tag, ptr %3, i32 0, i32 0
  %13 = zext i1 %10 to i8
  store i8 %13, ptr %12, align 8, !tbaa !80
  %14 = load { i8, i64 }, ptr %3, align 8
  ret { i8, i64 } %14
}

; Function Attrs: inlinehint nounwind sspstrong willreturn memory(read) uwtable
define internal ptr @rb_rand_if(i64 noundef %0) #6 {
  %2 = alloca i64, align 8
  %3 = alloca ptr, align 8
  %4 = alloca ptr, align 8
  store i64 %0, ptr %2, align 8, !tbaa !26
  call void @llvm.lifetime.start.p0(i64 8, ptr %3) #24
  %5 = load i64, ptr %2, align 8, !tbaa !26
  %6 = call ptr @RTYPEDDATA_TYPE(i64 noundef %5) #26
  store ptr %6, ptr %3, align 8, !tbaa !93
  call void @llvm.lifetime.start.p0(i64 8, ptr %4) #24
  %7 = load ptr, ptr %3, align 8, !tbaa !93
  %8 = getelementptr inbounds nuw %struct.rb_data_type_struct, ptr %7, i32 0, i32 3
  %9 = load ptr, ptr %8, align 8, !tbaa !94
  store ptr %9, ptr %4, align 8, !tbaa !20
  %10 = load ptr, ptr %4, align 8, !tbaa !20
  call void @llvm.lifetime.end.p0(i64 8, ptr %4) #24
  call void @llvm.lifetime.end.p0(i64 8, ptr %3) #24
  ret ptr %10
}

; Function Attrs: nounwind sspstrong uwtable
define internal ptr @default_rand() #0 {
  %1 = alloca ptr, align 8
  call void @llvm.lifetime.start.p0(i64 8, ptr %1) #24
  %2 = load ptr, ptr @default_rand_key, align 8, !tbaa !7
  %3 = call ptr @rb_ractor_local_storage_ptr(ptr noundef %2)
  store ptr %3, ptr %1, align 8, !tbaa !20
  %4 = icmp eq ptr %3, null
  br i1 %4, label %5, label %9

5:                                                ; preds = %0
  %6 = call noalias nonnull ptr @ruby_xcalloc(i64 noundef 1, i64 noundef 2520) #29
  store ptr %6, ptr %1, align 8, !tbaa !20
  %7 = load ptr, ptr @default_rand_key, align 8, !tbaa !7
  %8 = load ptr, ptr %1, align 8, !tbaa !20
  call void @rb_ractor_local_storage_ptr_set(ptr noundef %7, ptr noundef %8)
  br label %9

9:                                                ; preds = %5, %0
  %10 = load ptr, ptr %1, align 8, !tbaa !20
  call void @llvm.lifetime.end.p0(i64 8, ptr %1) #24
  ret ptr %10
}

; Function Attrs: inlinehint nounwind sspstrong uwtable
define internal i64 @rbimpl_size_mul_or_raise(i64 noundef %0, i64 noundef %1) #4 {
  %3 = alloca i64, align 8
  %4 = alloca i64, align 8
  %5 = alloca %struct.rbimpl_size_mul_overflow_tag, align 8
  store i64 %0, ptr %3, align 8, !tbaa !26
  store i64 %1, ptr %4, align 8, !tbaa !26
  call void @llvm.lifetime.start.p0(i64 16, ptr %5) #24
  %6 = load i64, ptr %3, align 8, !tbaa !26
  %7 = load i64, ptr %4, align 8, !tbaa !26
  %8 = call { i8, i64 } @rbimpl_size_mul_overflow(i64 noundef %6, i64 noundef %7) #28
  %9 = getelementptr inbounds nuw { i8, i64 }, ptr %5, i32 0, i32 0
  %10 = extractvalue { i8, i64 } %8, 0
  store i8 %10, ptr %9, align 8
  %11 = getelementptr inbounds nuw { i8, i64 }, ptr %5, i32 0, i32 1
  %12 = extractvalue { i8, i64 } %8, 1
  store i64 %12, ptr %11, align 8
  %13 = getelementptr inbounds nuw %struct.rbimpl_size_mul_overflow_tag, ptr %5, i32 0, i32 0
  %14 = load i8, ptr %13, align 8, !tbaa !80, !range !62, !noundef !63
  %15 = trunc i8 %14 to i1
  %16 = xor i1 %15, true
  %17 = xor i1 %16, true
  %18 = xor i1 %17, true
  %19 = zext i1 %18 to i32
  %20 = sext i32 %19 to i64
  %21 = call i64 @llvm.expect.i64(i64 %20, i64 1)
  %22 = icmp ne i64 %21, 0
  br i1 %22, label %23, label %26

23:                                               ; preds = %2
  %24 = getelementptr inbounds nuw %struct.rbimpl_size_mul_overflow_tag, ptr %5, i32 0, i32 1
  %25 = load i64, ptr %24, align 8, !tbaa !82
  call void @llvm.lifetime.end.p0(i64 16, ptr %5) #24
  ret i64 %25

26:                                               ; preds = %2
  %27 = load i64, ptr %3, align 8, !tbaa !26
  %28 = load i64, ptr %4, align 8, !tbaa !26
  call void @ruby_malloc_size_overflow(i64 noundef %27, i64 noundef %28) #27
  unreachable
}

; Function Attrs: nounwind sspstrong uwtable
define internal ptr @try_rand_if(i64 noundef %0, ptr noundef %1) #0 {
  %3 = alloca ptr, align 8
  %4 = alloca i64, align 8
  %5 = alloca ptr, align 8
  store i64 %0, ptr %4, align 8, !tbaa !26
  store ptr %1, ptr %5, align 8, !tbaa !24
  %6 = load ptr, ptr %5, align 8, !tbaa !24
  %7 = call ptr @default_rand()
  %8 = getelementptr inbounds nuw %struct.rb_random_mt_t, ptr %7, i32 0, i32 0
  %9 = icmp eq ptr %6, %8
  br i1 %9, label %10, label %11

10:                                               ; preds = %2
  store ptr @random_mt_if, ptr %3, align 8
  br label %14

11:                                               ; preds = %2
  %12 = load i64, ptr %4, align 8, !tbaa !26
  %13 = call ptr @rb_rand_if(i64 noundef %12) #26
  store ptr %13, ptr %3, align 8
  br label %14

14:                                               ; preds = %11, %10
  %15 = load ptr, ptr %3, align 8
  ret ptr %15
}

; Function Attrs: inlinehint nounwind sspstrong uwtable
define internal ptr @rb_alloc_tmp_buffer2(ptr noundef %0, i64 noundef %1, i64 noundef %2) #4 {
  %4 = alloca ptr, align 8
  %5 = alloca i64, align 8
  %6 = alloca i64, align 8
  %7 = alloca i64, align 8
  %8 = alloca i64, align 8
  store ptr %0, ptr %4, align 8, !tbaa !55
  store i64 %1, ptr %5, align 8, !tbaa !26
  store i64 %2, ptr %6, align 8, !tbaa !26
  call void @llvm.lifetime.start.p0(i64 8, ptr %7) #24
  %9 = load i64, ptr %5, align 8, !tbaa !26
  %10 = load i64, ptr %6, align 8, !tbaa !26
  %11 = call i64 @rbimpl_size_mul_or_raise(i64 noundef %9, i64 noundef %10)
  store i64 %11, ptr %7, align 8, !tbaa !26
  call void @llvm.lifetime.start.p0(i64 8, ptr %8) #24
  %12 = load i64, ptr %7, align 8, !tbaa !26
  %13 = add i64 %12, 8
  %14 = sub i64 %13, 1
  %15 = udiv i64 %14, 8
  store i64 %15, ptr %8, align 8, !tbaa !26
  %16 = load ptr, ptr %4, align 8, !tbaa !55
  %17 = load i64, ptr %7, align 8, !tbaa !26
  %18 = load i64, ptr %8, align 8, !tbaa !26
  %19 = call noalias nonnull ptr @rb_alloc_tmp_buffer_with_count(ptr noundef %16, i64 noundef %17, i64 noundef %18) #30
  call void @llvm.lifetime.end.p0(i64 8, ptr %8) #24
  call void @llvm.lifetime.end.p0(i64 8, ptr %7) #24
  ret ptr %19
}

; Function Attrs: nounwind sspstrong uwtable
define internal i64 @random_ulong_limited_big(i64 noundef %0, ptr noundef %1, i64 noundef %2) #0 {
  %4 = alloca i64, align 8
  %5 = alloca i64, align 8
  %6 = alloca ptr, align 8
  %7 = alloca i64, align 8
  %8 = alloca i64, align 8
  %9 = alloca i64, align 8
  %10 = alloca i64, align 8
  %11 = alloca i64, align 8
  %12 = alloca i64, align 8
  %13 = alloca ptr, align 8
  %14 = alloca i32, align 4
  %15 = alloca ptr, align 8
  %16 = alloca ptr, align 8
  %17 = alloca i32, align 4
  store i64 %0, ptr %5, align 8, !tbaa !26
  store ptr %1, ptr %6, align 8, !tbaa !24
  store i64 %2, ptr %7, align 8, !tbaa !26
  %18 = load ptr, ptr %6, align 8, !tbaa !24
  %19 = icmp ne ptr %18, null
  br i1 %19, label %96, label %20

20:                                               ; preds = %3
  call void @llvm.lifetime.start.p0(i64 8, ptr %8) #24
  call void @llvm.lifetime.start.p0(i64 8, ptr %9) #24
  call void @llvm.lifetime.start.p0(i64 8, ptr %10) #24
  call void @llvm.lifetime.start.p0(i64 8, ptr %11) #24
  call void @llvm.lifetime.start.p0(i64 8, ptr %12) #24
  %21 = load i64, ptr %7, align 8, !tbaa !26
  %22 = call i64 @rb_absint_numwords(i64 noundef %21, i64 noundef 32, ptr noundef %11)
  store i64 %22, ptr %12, align 8, !tbaa !26
  call void @llvm.lifetime.start.p0(i64 8, ptr %13) #24
  %23 = load i64, ptr %12, align 8, !tbaa !26
  %24 = mul i64 %23, 2
  %25 = icmp ult i64 %24, 256
  br i1 %25, label %26, label %31

26:                                               ; preds = %20
  store i64 0, ptr %9, align 8, !tbaa !26
  %27 = load i64, ptr %12, align 8, !tbaa !26
  %28 = mul i64 %27, 2
  %29 = mul i64 %28, 4
  %30 = alloca i8, i64 %29, align 16
  br label %35

31:                                               ; preds = %20
  %32 = load i64, ptr %12, align 8, !tbaa !26
  %33 = mul i64 %32, 2
  %34 = call ptr @rb_alloc_tmp_buffer2(ptr noundef %9, i64 noundef %33, i64 noundef 4)
  br label %35

35:                                               ; preds = %31, %26
  %36 = phi ptr [ %30, %26 ], [ %34, %31 ]
  store ptr %36, ptr %13, align 8, !tbaa !59
  call void @llvm.lifetime.start.p0(i64 4, ptr %14) #24
  %37 = load i64, ptr %11, align 8, !tbaa !26
  %38 = trunc i64 %37 to i32
  %39 = lshr i32 -1, %38
  store i32 %39, ptr %14, align 4, !tbaa !19
  call void @llvm.lifetime.start.p0(i64 8, ptr %15) #24
  %40 = load ptr, ptr %13, align 8, !tbaa !59
  store ptr %40, ptr %15, align 8, !tbaa !59
  call void @llvm.lifetime.start.p0(i64 8, ptr %16) #24
  %41 = load ptr, ptr %13, align 8, !tbaa !59
  %42 = load i64, ptr %12, align 8, !tbaa !26
  %43 = getelementptr i32, ptr %41, i64 %42
  store ptr %43, ptr %16, align 8, !tbaa !59
  call void @llvm.lifetime.start.p0(i64 4, ptr %17) #24
  store i32 65, ptr %17, align 4, !tbaa !19
  %44 = load i64, ptr %7, align 8, !tbaa !26
  %45 = load ptr, ptr %15, align 8, !tbaa !59
  %46 = load i64, ptr %12, align 8, !tbaa !26
  %47 = load i32, ptr %17, align 4, !tbaa !19
  %48 = call i32 @rb_integer_pack(i64 noundef %44, ptr noundef %45, i64 noundef %46, i64 noundef 4, i64 noundef 0, i32 noundef %47)
  br label %49

49:                                               ; preds = %74, %35
  %50 = load i64, ptr %5, align 8, !tbaa !26
  %51 = load ptr, ptr %16, align 8, !tbaa !59
  %52 = load i64, ptr %12, align 8, !tbaa !26
  %53 = mul i64 %52, 4
  %54 = call i64 @obj_random_bytes(i64 noundef %50, ptr noundef %51, i64 noundef %53)
  %55 = load i32, ptr %14, align 4, !tbaa !19
  %56 = load ptr, ptr %16, align 8, !tbaa !59
  %57 = getelementptr i32, ptr %56, i64 0
  %58 = load i32, ptr %57, align 4, !tbaa !19
  %59 = and i32 %58, %55
  store i32 %59, ptr %57, align 4, !tbaa !19
  store i64 0, ptr %10, align 8, !tbaa !26
  br label %60

60:                                               ; preds = %87, %49
  %61 = load i64, ptr %10, align 8, !tbaa !26
  %62 = load i64, ptr %12, align 8, !tbaa !26
  %63 = icmp ult i64 %61, %62
  br i1 %63, label %64, label %90

64:                                               ; preds = %60
  %65 = load ptr, ptr %15, align 8, !tbaa !59
  %66 = load i64, ptr %10, align 8, !tbaa !26
  %67 = getelementptr i32, ptr %65, i64 %66
  %68 = load i32, ptr %67, align 4, !tbaa !19
  %69 = load ptr, ptr %16, align 8, !tbaa !59
  %70 = load i64, ptr %10, align 8, !tbaa !26
  %71 = getelementptr i32, ptr %69, i64 %70
  %72 = load i32, ptr %71, align 4, !tbaa !19
  %73 = icmp ult i32 %68, %72
  br i1 %73, label %74, label %75

74:                                               ; preds = %64
  br label %49

75:                                               ; preds = %64
  %76 = load ptr, ptr %16, align 8, !tbaa !59
  %77 = load i64, ptr %10, align 8, !tbaa !26
  %78 = getelementptr i32, ptr %76, i64 %77
  %79 = load i32, ptr %78, align 4, !tbaa !19
  %80 = load ptr, ptr %15, align 8, !tbaa !59
  %81 = load i64, ptr %10, align 8, !tbaa !26
  %82 = getelementptr i32, ptr %80, i64 %81
  %83 = load i32, ptr %82, align 4, !tbaa !19
  %84 = icmp ult i32 %79, %83
  br i1 %84, label %85, label %86

85:                                               ; preds = %75
  br label %90

86:                                               ; preds = %75
  br label %87

87:                                               ; preds = %86
  %88 = load i64, ptr %10, align 8, !tbaa !26
  %89 = add i64 %88, 1
  store i64 %89, ptr %10, align 8, !tbaa !26
  br label %60, !llvm.loop !99

90:                                               ; preds = %85, %60
  %91 = load ptr, ptr %16, align 8, !tbaa !59
  %92 = load i64, ptr %12, align 8, !tbaa !26
  %93 = load i32, ptr %17, align 4, !tbaa !19
  %94 = call i64 @rb_integer_unpack(ptr noundef %91, i64 noundef %92, i64 noundef 4, i64 noundef 0, i32 noundef %93)
  store i64 %94, ptr %8, align 8, !tbaa !26
  call void @rb_free_tmp_buffer(ptr noundef %9)
  %95 = load i64, ptr %8, align 8, !tbaa !26
  store i64 %95, ptr %4, align 8
  call void @llvm.lifetime.end.p0(i64 4, ptr %17) #24
  call void @llvm.lifetime.end.p0(i64 8, ptr %16) #24
  call void @llvm.lifetime.end.p0(i64 8, ptr %15) #24
  call void @llvm.lifetime.end.p0(i64 4, ptr %14) #24
  call void @llvm.lifetime.end.p0(i64 8, ptr %13) #24
  call void @llvm.lifetime.end.p0(i64 8, ptr %12) #24
  call void @llvm.lifetime.end.p0(i64 8, ptr %11) #24
  call void @llvm.lifetime.end.p0(i64 8, ptr %10) #24
  call void @llvm.lifetime.end.p0(i64 8, ptr %9) #24
  call void @llvm.lifetime.end.p0(i64 8, ptr %8) #24
  br label %103

96:                                               ; preds = %3
  %97 = load i64, ptr %5, align 8, !tbaa !26
  %98 = load ptr, ptr %6, align 8, !tbaa !24
  %99 = call ptr @try_rand_if(i64 noundef %97, ptr noundef %98)
  %100 = load ptr, ptr %6, align 8, !tbaa !24
  %101 = load i64, ptr %7, align 8, !tbaa !26
  %102 = call i64 @limited_big_rand(ptr noundef %99, ptr noundef %100, i64 noundef %101)
  store i64 %102, ptr %4, align 8
  br label %103

103:                                              ; preds = %96, %90
  %104 = load i64, ptr %4, align 8
  ret i64 %104
}