; Function Attrs: nounwind sspstrong uwtable
define internal fastcc i64 @random_ulong_limited_big(i64 noundef %0, ptr noundef %1, i64 noundef %2) unnamed_addr #0 {
  %4 = alloca i64, align 8
  %5 = alloca i64, align 8
  %.not = icmp eq ptr %1, null
  br i1 %.not, label %6, label %43

6:                                                ; preds = %3
  call void @llvm.lifetime.start.p0(i64 8, ptr nonnull %4) #23
  call void @llvm.lifetime.start.p0(i64 8, ptr nonnull %5) #23
  %7 = call i64 @rb_absint_numwords(i64 noundef %2, i64 noundef 32, ptr noundef nonnull %5) #23
  %8 = shl i64 %7, 1
  %9 = icmp ult i64 %8, 256
  br i1 %9, label %10, label %13

10:                                               ; preds = %6
  store i64 0, ptr %4, align 8, !tbaa !43
  %11 = shl i64 %7, 3
  %12 = alloca i8, i64 %11, align 16
  br label %19

13:                                               ; preds = %6
  %14 = icmp ugt i64 %8, 4611686018427387903
  br i1 %14, label %15, label %rb_alloc_tmp_buffer2.exit, !prof !88

15:                                               ; preds = %13
  call void @ruby_malloc_size_overflow(i64 noundef range(i64 256, 0) %8, i64 noundef 4) #25
  unreachable

rb_alloc_tmp_buffer2.exit:                        ; preds = %13
  %16 = shl i64 %7, 3
  %17 = and i64 %7, 2305843009213693951
  %18 = call noalias nonnull ptr @rb_alloc_tmp_buffer_with_count(ptr noundef nonnull %4, i64 noundef %16, i64 noundef %17) #28
  br label %19

19:                                               ; preds = %rb_alloc_tmp_buffer2.exit, %10
  %20 = phi ptr [ %12, %10 ], [ %18, %rb_alloc_tmp_buffer2.exit ]
  %21 = load i64, ptr %5, align 8, !tbaa !43
  %22 = trunc i64 %21 to i32
  %23 = lshr i32 -1, %22
  %24 = getelementptr i32, ptr %20, i64 %7
  %25 = call i32 @rb_integer_pack(i64 noundef %2, ptr noundef nonnull %20, i64 noundef %7, i64 noundef 4, i64 noundef 0, i32 noundef 65) #23
  %26 = shl i64 %7, 2
  %27 = call fastcc i64 @obj_random_bytes(i64 noundef %0, ptr noundef %24, i64 noundef %26)
  %28 = load i32, ptr %24, align 4, !tbaa !22
  %29 = and i32 %28, %23
  store i32 %29, ptr %24, align 4, !tbaa !22
  %.not45 = icmp eq i64 %7, 0
  br i1 %.not45, label %._crit_edge, label %.lr.ph.us

.lr.ph.us:                                        ; preds = %19, %.lr.ph.us.backedge
  %.03641.us = phi i64 [ %.03641.us.be, %.lr.ph.us.backedge ], [ 0, %19 ]
  %30 = getelementptr i32, ptr %20, i64 %.03641.us
  %31 = load i32, ptr %30, align 4, !tbaa !22
  %32 = getelementptr i32, ptr %24, i64 %.03641.us
  %33 = load i32, ptr %32, align 4, !tbaa !22
  %34 = icmp ult i32 %31, %33
  br i1 %34, label %.loopexit.us, label %35

35:                                               ; preds = %.lr.ph.us
  %36 = icmp uge i32 %33, %31
  %37 = add nuw i64 %.03641.us, 1
  %38 = icmp ult i64 %37, %7
  %or.cond = select i1 %36, i1 %38, i1 false
  br i1 %or.cond, label %.lr.ph.us.backedge, label %._crit_edge

.lr.ph.us.backedge:                               ; preds = %35, %.loopexit.us
  %.03641.us.be = phi i64 [ %37, %35 ], [ 0, %.loopexit.us ]
  br label %.lr.ph.us, !llvm.loop !98

.loopexit.us:                                     ; preds = %.lr.ph.us
  %39 = call fastcc i64 @obj_random_bytes(i64 noundef %0, ptr noundef nonnull %24, i64 noundef %26)
  %40 = load i32, ptr %24, align 4, !tbaa !22
  %41 = and i32 %40, %23
  store i32 %41, ptr %24, align 4, !tbaa !22
  br label %.lr.ph.us.backedge

._crit_edge:                                      ; preds = %35, %19
  %42 = call i64 @rb_integer_unpack(ptr noundef nonnull %24, i64 noundef %7, i64 noundef 4, i64 noundef 0, i32 noundef 65) #23
  call void @rb_free_tmp_buffer(ptr noundef nonnull %4) #23
  call void @llvm.lifetime.end.p0(i64 8, ptr nonnull %5) #23
  call void @llvm.lifetime.end.p0(i64 8, ptr nonnull %4) #23
  br label %58

43:                                               ; preds = %3
  %44 = load ptr, ptr @default_rand_key, align 8, !tbaa !7
  %45 = tail call ptr @rb_ractor_local_storage_ptr(ptr noundef %44) #23
  %46 = icmp eq ptr %45, null
  br i1 %46, label %47, label %default_rand.exit.i

47:                                               ; preds = %43
  %48 = tail call noalias nonnull dereferenceable(2520) ptr @ruby_xcalloc(i64 noundef 1, i64 noundef 2520) #24
  %49 = load ptr, ptr @default_rand_key, align 8, !tbaa !7
  tail call void @rb_ractor_local_storage_ptr_set(ptr noundef %49, ptr noundef nonnull %48) #23
  br label %default_rand.exit.i

default_rand.exit.i:                              ; preds = %47, %43
  %.0.i.i = phi ptr [ %48, %47 ], [ %45, %43 ]
  %50 = icmp eq ptr %1, %.0.i.i
  br i1 %50, label %try_rand_if.exit, label %51

51:                                               ; preds = %default_rand.exit.i
  %52 = inttoptr i64 %0 to ptr
  %53 = getelementptr inbounds nuw i8, ptr %52, i64 16
  %54 = load ptr, ptr %53, align 8, !tbaa !31
  %55 = getelementptr inbounds nuw i8, ptr %54, i64 56
  %56 = load ptr, ptr %55, align 8, !tbaa !35
  br label %try_rand_if.exit

try_rand_if.exit:                                 ; preds = %default_rand.exit.i, %51
  %.0.i = phi ptr [ %56, %51 ], [ @random_mt_if, %default_rand.exit.i ]
  %57 = tail call fastcc i64 @limited_big_rand(ptr noundef %.0.i, ptr noundef %1, i64 noundef %2)
  br label %58

58:                                               ; preds = %try_rand_if.exit, %._crit_edge
  %.0 = phi i64 [ %57, %try_rand_if.exit ], [ %42, %._crit_edge ]
  ret i64 %.0
}